target datalayout = "e-m:e-p270:32:32-p271:32:32-p272:64:64-i64:64-i128:128-f80:128-n8:16:32:64-S128"
target triple = "x86_64-pc-linux-gnu"

%struct.DdManager = type { %struct.DdNode, ptr, ptr, ptr, ptr, ptr, ptr, ptr, i32, i32, double, double, double, i32, i32, i32, i32, i32, i32, ptr, ptr, %struct.DdSubtable, i32, i32, i32, i32, i32, i32, i32, double, i32, i32, i32, ptr, i64, double, i32, ptr, ptr, ptr, ptr, ptr, ptr, ptr, i32, ptr, ptr, ptr, ptr, ptr, ptr, i32, i32, i32, double, i32, i32, i32, i32, double, double, i32, i32, i32, i32, i32, i32, i32, i32, i32, ptr, ptr, i32, i32, i32, i32, i32, i32, ptr, ptr, ptr, ptr, ptr, ptr, ptr, ptr, i32, i64, i64, i64, i32, i64, i64, double, double, double, double, double, double, i32, ptr, ptr, i64 }
%struct.DdNode = type { i32, i32, ptr, %union.anon, i64 }
%union.anon = type { %struct.DdChildren }
%struct.DdChildren = type { ptr, ptr }
%struct.DdSubtable = type { ptr, i32, i32, i32, i32, i32, i32, i32, i32, i32, i32, i32 }

; Function Attrs: nounwind uwtable
define ptr @Cudd_addXeqy(ptr noundef %0, i32 noundef %1, ptr noundef %2, ptr noundef %3) #0 {
  %5 = alloca ptr, align 8
  %6 = alloca ptr, align 8
  %7 = alloca i32, align 4
  %8 = alloca ptr, align 8
  %9 = alloca ptr, align 8
  %10 = alloca ptr, align 8
  %11 = alloca ptr, align 8
  %12 = alloca ptr, align 8
  %13 = alloca ptr, align 8
  %14 = alloca ptr, align 8
  %15 = alloca i32, align 4
  store ptr %0, ptr %6, align 8
  store i32 %1, ptr %7, align 4
  store ptr %2, ptr %8, align 8
  store ptr %3, ptr %9, align 8
  %16 = load ptr, ptr %6, align 8
  %17 = getelementptr inbounds %struct.DdManager, ptr %16, i32 0, i32 1
  %18 = load ptr, ptr %17, align 8
  store ptr %18, ptr %10, align 8
  %19 = load ptr, ptr %6, align 8
  %20 = getelementptr inbounds %struct.DdManager, ptr %19, i32 0, i32 2
  %21 = load ptr, ptr %20, align 8
  store ptr %21, ptr %11, align 8
  %22 = load ptr, ptr %6, align 8
  %23 = load ptr, ptr %9, align 8
  %24 = load i32, ptr %7, align 4
  %25 = sub nsw i32 %24, 1
  %26 = sext i32 %25 to i64
  %27 = getelementptr inbounds ptr, ptr %23, i64 %26
  %28 = load ptr, ptr %27, align 8
  %29 = load ptr, ptr %10, align 8
  %30 = load ptr, ptr %11, align 8
  %31 = call ptr @Cudd_addIte(ptr noundef %22, ptr noundef %28, ptr noundef %29, ptr noundef %30)
  store ptr %31, ptr %13, align 8
  %32 = load ptr, ptr %13, align 8
  %33 = icmp eq ptr %32, null
  br i1 %33, label %34, label %35

34:                                               ; preds = %4
  store ptr null, ptr %5, align 8
  br label %189

35:                                               ; preds = %4
  %36 = load ptr, ptr %13, align 8
  %37 = ptrtoint ptr %36 to i64
  %38 = and i64 %37, -2
  %39 = inttoptr i64 %38 to ptr
  %40 = getelementptr inbounds %struct.DdNode, ptr %39, i32 0, i32 1
  %41 = load i32, ptr %40, align 4
  %42 = add i32 %41, 1
  store i32 %42, ptr %40, align 4
  %43 = load ptr, ptr %6, align 8
  %44 = load ptr, ptr %9, align 8
  %45 = load i32, ptr %7, align 4
  %46 = sub nsw i32 %45, 1
  %47 = sext i32 %46 to i64
  %48 = getelementptr inbounds ptr, ptr %44, i64 %47
  %49 = load ptr, ptr %48, align 8
  %50 = load ptr, ptr %11, align 8
  %51 = load ptr, ptr %10, align 8
  %52 = call ptr @Cudd_addIte(ptr noundef %43, ptr noundef %49, ptr noundef %50, ptr noundef %51)
  store ptr %52, ptr %14, align 8
  %53 = load ptr, ptr %14, align 8
  %54 = icmp eq ptr %53, null
  br i1 %54, label %55, label %58

55:                                               ; preds = %35
  %56 = load ptr, ptr %6, align 8
  %57 = load ptr, ptr %13, align 8
  call void @Cudd_RecursiveDeref(ptr noundef %56, ptr noundef %57)
  store ptr null, ptr %5, align 8
  br label %189

58:                                               ; preds = %35
  %59 = load ptr, ptr %14, align 8
  %60 = ptrtoint ptr %59 to i64
  %61 = and i64 %60, -2
  %62 = inttoptr i64 %61 to ptr
  %63 = getelementptr inbounds %struct.DdNode, ptr %62, i32 0, i32 1
  %64 = load i32, ptr %63, align 4
  %65 = add i32 %64, 1
  store i32 %65, ptr %63, align 4
  %66 = load ptr, ptr %6, align 8
  %67 = load ptr, ptr %8, align 8
  %68 = load i32, ptr %7, align 4
  %69 = sub nsw i32 %68, 1
  %70 = sext i32 %69 to i64
  %71 = getelementptr inbounds ptr, ptr %67, i64 %70
  %72 = load ptr, ptr %71, align 8
  %73 = load ptr, ptr %13, align 8
  %74 = load ptr, ptr %14, align 8
  %75 = call ptr @Cudd_addIte(ptr noundef %66, ptr noundef %72, ptr noundef %73, ptr noundef %74)
  store ptr %75, ptr %12, align 8
  %76 = load ptr, ptr %12, align 8
  %77 = icmp eq ptr %76, null
  br i1 %77, label %78, label %83

78:                                               ; preds = %58
  %79 = load ptr, ptr %6, align 8
  %80 = load ptr, ptr %13, align 8
  call void @Cudd_RecursiveDeref(ptr noundef %79, ptr noundef %80)
  %81 = load ptr, ptr %6, align 8
  %82 = load ptr, ptr %14, align 8
  call void @Cudd_RecursiveDeref(ptr noundef %81, ptr noundef %82)
  store ptr null, ptr %5, align 8
  br label %189

83:                                               ; preds = %58
  %84 = load ptr, ptr %12, align 8
  %85 = ptrtoint ptr %84 to i64
  %86 = and i64 %85, -2
  %87 = inttoptr i64 %86 to ptr
  %88 = getelementptr inbounds %struct.DdNode, ptr %87, i32 0, i32 1
  %89 = load i32, ptr %88, align 4
  %90 = add i32 %89, 1
  store i32 %90, ptr %88, align 4
  %91 = load ptr, ptr %6, align 8
  %92 = load ptr, ptr %13, align 8
  call void @Cudd_RecursiveDeref(ptr noundef %91, ptr noundef %92)
  %93 = load ptr, ptr %6, align 8
  %94 = load ptr, ptr %14, align 8
  call void @Cudd_RecursiveDeref(ptr noundef %93, ptr noundef %94)
  %95 = load i32, ptr %7, align 4
  %96 = sub nsw i32 %95, 2
  store i32 %96, ptr %15, align 4
  br label %97

97:                                               ; preds = %177, %83
  %98 = load i32, ptr %15, align 4
  %99 = icmp sge i32 %98, 0
  br i1 %99, label %100, label %180

100:                                              ; preds = %97
  %101 = load ptr, ptr %6, align 8
  %102 = load ptr, ptr %9, align 8
  %103 = load i32, ptr %15, align 4
  %104 = sext i32 %103 to i64
  %105 = getelementptr inbounds ptr, ptr %102, i64 %104
  %106 = load ptr, ptr %105, align 8
  %107 = load ptr, ptr %12, align 8
  %108 = load ptr, ptr %11, align 8
  %109 = call ptr @Cudd_addIte(ptr noundef %101, ptr noundef %106, ptr noundef %107, ptr noundef %108)
  store ptr %109, ptr %13, align 8
  %110 = load ptr, ptr %13, align 8
  %111 = icmp eq ptr %110, null
  br i1 %111, label %112, label %115

112:                                              ; preds = %100
  %113 = load ptr, ptr %6, align 8
  %114 = load ptr, ptr %12, align 8
  call void @Cudd_RecursiveDeref(ptr noundef %113, ptr noundef %114)
  store ptr null, ptr %5, align 8
  br label %189

115:                                              ; preds = %100
  %116 = load ptr, ptr %13, align 8
  %117 = ptrtoint ptr %116 to i64
  %118 = and i64 %117, -2
  %119 = inttoptr i64 %118 to ptr
  %120 = getelementptr inbounds %struct.DdNode, ptr %119, i32 0, i32 1
  %121 = load i32, ptr %120, align 4
  %122 = add i32 %121, 1
  store i32 %122, ptr %120, align 4
  %123 = load ptr, ptr %6, align 8
  %124 = load ptr, ptr %9, align 8
  %125 = load i32, ptr %15, align 4
  %126 = sext i32 %125 to i64
  %127 = getelementptr inbounds ptr, ptr %124, i64 %126
  %128 = load ptr, ptr %127, align 8
  %129 = load ptr, ptr %11, align 8
  %130 = load ptr, ptr %12, align 8
  %131 = call ptr @Cudd_addIte(ptr noundef %123, ptr noundef %128, ptr noundef %129, ptr noundef %130)
  store ptr %131, ptr %14, align 8
  %132 = load ptr, ptr %14, align 8
  %133 = icmp eq ptr %132, null
  br i1 %133, label %134, label %139

134:                                              ; preds = %115
  %135 = load ptr, ptr %6, align 8
  %136 = load ptr, ptr %12, align 8
  call void @Cudd_RecursiveDeref(ptr noundef %135, ptr noundef %136)
  %137 = load ptr, ptr %6, align 8
  %138 = load ptr, ptr %13, align 8
  call void @Cudd_RecursiveDeref(ptr noundef %137, ptr noundef %138)
  store ptr null, ptr %5, align 8
  br label %189

139:                                              ; preds = %115
  %140 = load ptr, ptr %14, align 8
  %141 = ptrtoint ptr %140 to i64
  %142 = and i64 %141, -2
  %143 = inttoptr i64 %142 to ptr
  %144 = getelementptr inbounds %struct.DdNode, ptr %143, i32 0, i32 1
  %145 = load i32, ptr %144, align 4
  %146 = add i32 %145, 1
  store i32 %146, ptr %144, align 4
  %147 = load ptr, ptr %6, align 8
  %148 = load ptr, ptr %12, align 8
  call void @Cudd_RecursiveDeref(ptr noundef %147, ptr noundef %148)
  %149 = load ptr, ptr %6, align 8
  %150 = load ptr, ptr %8, align 8
  %151 = load i32, ptr %15, align 4
  %152 = sext i32 %151 to i64
  %153 = getelementptr inbounds ptr, ptr %150, i64 %152
  %154 = load ptr, ptr %153, align 8
  %155 = load ptr, ptr %13, align 8
  %156 = load ptr, ptr %14, align 8
  %157 = call ptr @Cudd_addIte(ptr noundef %149, ptr noundef %154, ptr noundef %155, ptr noundef %156)
  store ptr %157, ptr %12, align 8
  %158 = load ptr, ptr %14, align 8
  %159 = icmp eq ptr %158, null
  br i1 %159, label %160, label %165

160:                                              ; preds = %139
  %161 = load ptr, ptr %6, align 8
  %162 = load ptr, ptr %13, align 8
  call void @Cudd_RecursiveDeref(ptr noundef %161, ptr noundef %162)
  %163 = load ptr, ptr %6, align 8
  %164 = load ptr, ptr %14, align 8
  call void @Cudd_RecursiveDeref(ptr noundef %163, ptr noundef %164)
  store ptr null, ptr %5, align 8
  br label %189

165:                                              ; preds = %139
  %166 = load ptr, ptr %12, align 8
  %167 = ptrtoint ptr %166 to i64
  %168 = and i64 %167, -2
  %169 = inttoptr i64 %168 to ptr
  %170 = getelementptr inbounds %struct.DdNode, ptr %169, i32 0, i32 1
  %171 = load i32, ptr %170, align 4
  %172 = add i32 %171, 1
  store i32 %172, ptr %170, align 4
  %173 = load ptr, ptr %6, align 8
  %174 = load ptr, ptr %13, align 8
  call void @Cudd_RecursiveDeref(ptr noundef %173, ptr noundef %174)
  %175 = load ptr, ptr %6, align 8
  %176 = load ptr, ptr %14, align 8
  call void @Cudd_RecursiveDeref(ptr noundef %175, ptr noundef %176)
  br label %177

177:                                              ; preds = %165
  %178 = load i32, ptr %15, align 4
  %179 = add nsw i32 %178, -1
  store i32 %179, ptr %15, align 4
  br label %97, !llvm.loop !9

180:                                              ; preds = %97
  %181 = load ptr, ptr %12, align 8
  %182 = ptrtoint ptr %181 to i64
  %183 = and i64 %182, -2
  %184 = inttoptr i64 %183 to ptr
  %185 = getelementptr inbounds %struct.DdNode, ptr %184, i32 0, i32 1
  %186 = load i32, ptr %185, align 4
  %187 = add i32 %186, -1
  store i32 %187, ptr %185, align 4
  %188 = load ptr, ptr %12, align 8
  store ptr %188, ptr %5, align 8
  br label %189

189:                                              ; preds = %180, %160, %134, %112, %78, %55, %34
  %190 = load ptr, ptr %5, align 8
  ret ptr %190
}