; Function Attrs: nounwind uwtable
define ptr @Cudd_addXeqy(ptr noundef %0, i32 noundef %1, ptr noundef readonly captures(none) %2, ptr noundef readonly captures(none) %3) local_unnamed_addr #0 {
  %5 = getelementptr inbounds nuw i8, ptr %0, i64 40
  %6 = load ptr, ptr %5, align 8
  %7 = getelementptr inbounds nuw i8, ptr %0, i64 48
  %8 = load ptr, ptr %7, align 8
  %9 = add nsw i32 %1, -1
  %10 = sext i32 %9 to i64
  %11 = getelementptr inbounds ptr, ptr %3, i64 %10
  %12 = load ptr, ptr %11, align 8
  %13 = tail call ptr @Cudd_addIte(ptr noundef %0, ptr noundef %12, ptr noundef %6, ptr noundef %8) #6
  %14 = icmp eq ptr %13, null
  br i1 %14, label %84, label %15

15:                                               ; preds = %4
  %16 = ptrtoint ptr %13 to i64
  %17 = and i64 %16, -2
  %18 = inttoptr i64 %17 to ptr
  %19 = getelementptr inbounds nuw i8, ptr %18, i64 4
  %20 = load i32, ptr %19, align 4
  %21 = add i32 %20, 1
  store i32 %21, ptr %19, align 4
  %22 = load ptr, ptr %11, align 8
  %23 = tail call ptr @Cudd_addIte(ptr noundef nonnull %0, ptr noundef %22, ptr noundef %8, ptr noundef %6) #6
  %24 = icmp eq ptr %23, null
  br i1 %24, label %25, label %26

25:                                               ; preds = %15
  tail call void @Cudd_RecursiveDeref(ptr noundef nonnull %0, ptr noundef nonnull %13) #6
  br label %84

26:                                               ; preds = %15
  %27 = ptrtoint ptr %23 to i64
  %28 = and i64 %27, -2
  %29 = inttoptr i64 %28 to ptr
  %30 = getelementptr inbounds nuw i8, ptr %29, i64 4
  %31 = load i32, ptr %30, align 4
  %32 = add i32 %31, 1
  store i32 %32, ptr %30, align 4
  %33 = getelementptr inbounds ptr, ptr %2, i64 %10
  %34 = load ptr, ptr %33, align 8
  %35 = tail call ptr @Cudd_addIte(ptr noundef nonnull %0, ptr noundef %34, ptr noundef nonnull %13, ptr noundef nonnull %23) #6
  %36 = icmp eq ptr %35, null
  br i1 %36, label %37, label %38

37:                                               ; preds = %26
  tail call void @Cudd_RecursiveDeref(ptr noundef nonnull %0, ptr noundef nonnull %13) #6
  tail call void @Cudd_RecursiveDeref(ptr noundef nonnull %0, ptr noundef nonnull %23) #6
  br label %84

38:                                               ; preds = %26
  %39 = ptrtoint ptr %35 to i64
  %40 = and i64 %39, -2
  %41 = inttoptr i64 %40 to ptr
  %42 = getelementptr inbounds nuw i8, ptr %41, i64 4
  %43 = load i32, ptr %42, align 4
  %44 = add i32 %43, 1
  store i32 %44, ptr %42, align 4
  tail call void @Cudd_RecursiveDeref(ptr noundef nonnull %0, ptr noundef nonnull %13) #6
  tail call void @Cudd_RecursiveDeref(ptr noundef nonnull %0, ptr noundef nonnull %23) #6
  %45 = icmp sgt i32 %1, 1
  br i1 %45, label %.lr.ph.preheader, label %._crit_edge

.lr.ph.preheader:                                 ; preds = %38
  %46 = add nsw i32 %1, -2
  %47 = zext nneg i32 %46 to i64
  br label %.lr.ph

.lr.ph:                                           ; preds = %.lr.ph.preheader, %64
  %indvars.iv = phi i64 [ %47, %.lr.ph.preheader ], [ %indvars.iv.next, %64 ]
  %.07585 = phi ptr [ %35, %.lr.ph.preheader ], [ %73, %64 ]
  %48 = getelementptr inbounds nuw ptr, ptr %3, i64 %indvars.iv
  %49 = load ptr, ptr %48, align 8
  %50 = tail call ptr @Cudd_addIte(ptr noundef nonnull %0, ptr noundef %49, ptr noundef %.07585, ptr noundef %8) #6
  %51 = icmp eq ptr %50, null
  br i1 %51, label %52, label %53

52:                                               ; preds = %.lr.ph
  tail call void @Cudd_RecursiveDeref(ptr noundef nonnull %0, ptr noundef %.07585) #6
  br label %84

53:                                               ; preds = %.lr.ph
  %54 = ptrtoint ptr %50 to i64
  %55 = and i64 %54, -2
  %56 = inttoptr i64 %55 to ptr
  %57 = getelementptr inbounds nuw i8, ptr %56, i64 4
  %58 = load i32, ptr %57, align 4
  %59 = add i32 %58, 1
  store i32 %59, ptr %57, align 4
  %60 = load ptr, ptr %48, align 8
  %61 = tail call ptr @Cudd_addIte(ptr noundef nonnull %0, ptr noundef %60, ptr noundef %8, ptr noundef %.07585) #6
  %62 = icmp eq ptr %61, null
  br i1 %62, label %63, label %64

63:                                               ; preds = %53
  tail call void @Cudd_RecursiveDeref(ptr noundef nonnull %0, ptr noundef %.07585) #6
  tail call void @Cudd_RecursiveDeref(ptr noundef nonnull %0, ptr noundef nonnull %50) #6
  br label %84

64:                                               ; preds = %53
  %65 = ptrtoint ptr %61 to i64
  %66 = and i64 %65, -2
  %67 = inttoptr i64 %66 to ptr
  %68 = getelementptr inbounds nuw i8, ptr %67, i64 4
  %69 = load i32, ptr %68, align 4
  %70 = add i32 %69, 1
  store i32 %70, ptr %68, align 4
  tail call void @Cudd_RecursiveDeref(ptr noundef nonnull %0, ptr noundef %.07585) #6
  %71 = getelementptr inbounds nuw ptr, ptr %2, i64 %indvars.iv
  %72 = load ptr, ptr %71, align 8
  %73 = tail call ptr @Cudd_addIte(ptr noundef nonnull %0, ptr noundef %72, ptr noundef nonnull %50, ptr noundef nonnull %61) #6
  %74 = ptrtoint ptr %73 to i64
  %75 = and i64 %74, -2
  %76 = inttoptr i64 %75 to ptr
  %77 = getelementptr inbounds nuw i8, ptr %76, i64 4
  %78 = load i32, ptr %77, align 4
  %79 = add i32 %78, 1
  store i32 %79, ptr %77, align 4
  tail call void @Cudd_RecursiveDeref(ptr noundef nonnull %0, ptr noundef nonnull %50) #6
  tail call void @Cudd_RecursiveDeref(ptr noundef nonnull %0, ptr noundef nonnull %61) #6
  %indvars.iv.next = add nsw i64 %indvars.iv, -1
  %80 = icmp sgt i64 %indvars.iv, 0
  br i1 %80, label %.lr.ph, label %._crit_edge, !llvm.loop !9

._crit_edge:                                      ; preds = %64, %38
  %.pre-phi94 = phi ptr [ %41, %38 ], [ %76, %64 ]
  %.075.lcssa = phi ptr [ %35, %38 ], [ %73, %64 ]
  %81 = getelementptr inbounds nuw i8, ptr %.pre-phi94, i64 4
  %82 = load i32, ptr %81, align 4
  %83 = add i32 %82, -1
  store i32 %83, ptr %81, align 4
  br label %84

84:                                               ; preds = %4, %._crit_edge, %63, %52, %37, %25
  %.076 = phi ptr [ null, %25 ], [ null, %37 ], [ null, %52 ], [ null, %63 ], [ %.075.lcssa, %._crit_edge ], [ null, %4 ]
  ret ptr %.076
}